; Function Attrs: nounwind uwtable
define internal noundef ptr @readline_add_history(ptr readnone captures(none) %0, ptr noundef %1) #0 {
  %3 = tail call ptr @PyUnicode_EncodeLocale(ptr noundef %1, ptr noundef nonnull @.str.34) #14
  %4 = icmp eq ptr %3, null
  br i1 %4, label %Py_DECREF.exit, label %5

5:                                                ; preds = %2
  %6 = getelementptr inbounds nuw i8, ptr %3, i64 32
  tail call void @add_history(ptr noundef nonnull %6) #14
  %7 = load i32, ptr %3, align 8, !tbaa !25
  %.not.i = icmp sgt i32 %7, -1
  br i1 %.not.i, label %8, label %Py_DECREF.exit

8:                                                ; preds = %5
  %9 = add nsw i32 %7, -1
  store i32 %9, ptr %3, align 8, !tbaa !25
  %10 = icmp eq i32 %9, 0
  br i1 %10, label %11, label %Py_DECREF.exit

11:                                               ; preds = %8
  tail call void @_Py_Dealloc(ptr noundef nonnull %3) #14
  br label %Py_DECREF.exit

Py_DECREF.exit:                                   ; preds = %11, %8, %5, %2
  %.0 = phi ptr [ null, %2 ], [ @_Py_NoneStruct, %5 ], [ @_Py_NoneStruct, %8 ], [ @_Py_NoneStruct, %11 ]
  ret ptr %.0
}